target datalayout = "e-m:e-p270:32:32-p271:32:32-p272:64:64-i64:64-i128:128-f80:128-n8:16:32:64-S128"
target triple = "x86_64-pc-linux-gnu"

%class.NativeCallStack = type { [4 x ptr] }

@_ZN10MemTracker15_tracking_levelE = external global i32, align 4
@_ZN10OopStorage11ActiveArrayC1Em = hidden unnamed_addr alias void (ptr, i64), ptr @_ZN10OopStorage11ActiveArrayC2Em

; Function Attrs: mustprogress nounwind uwtable
define linkonce_odr hidden noundef i64 @_Z10align_downImmTnNSt9enable_ifIXcvbsr3std11is_integralIT_EE5valueEiE4typeELi0EES1_S1_T0_(i64 noundef %0, i64 noundef %1) #1 comdat {
  %3 = alloca i64, align 8
  %4 = alloca i64, align 8
  %5 = alloca i64, align 8
  store i64 %0, ptr %3, align 8
  store i64 %1, ptr %4, align 8
  %6 = load i64, ptr %3, align 8
  %7 = load i64, ptr %4, align 8
  %8 = call noundef i64 @_ZL14alignment_maskImTnNSt9enable_ifIXcvbsr3std11is_integralIT_EE5valueEiE4typeELi0EES1_S1_(i64 noundef %7)
  %9 = xor i64 %8, -1
  %10 = and i64 %6, %9
  store i64 %10, ptr %5, align 8
  %11 = load i64, ptr %5, align 8
  ret i64 %11
}

; Function Attrs: mustprogress nounwind uwtable
define linkonce_odr hidden noundef i64 @_Z12checked_castImmET_T0_(i64 noundef %0) #1 comdat {
  %2 = alloca i64, align 8
  %3 = alloca i64, align 8
  store i64 %0, ptr %2, align 8
  %4 = load i64, ptr %2, align 8
  store i64 %4, ptr %3, align 8
  %5 = load i64, ptr %3, align 8
  ret i64 %5
}

; Function Attrs: mustprogress nounwind uwtable
define internal noundef i64 @_ZL14alignment_maskImTnNSt9enable_ifIXcvbsr3std11is_integralIT_EE5valueEiE4typeELi0EES1_S1_(i64 noundef %0) #1 {
  %2 = alloca i64, align 8
  store i64 %0, ptr %2, align 8
  %3 = load i64, ptr %2, align 8
  %4 = sub i64 %3, 1
  ret i64 %4
}

; Function Attrs: mustprogress nounwind uwtable
define linkonce_odr hidden noundef i64 @_Z8align_upImmTnNSt9enable_ifIXcvbsr3std11is_integralIT_EE5valueEiE4typeELi0EES1_S1_T0_(i64 noundef %0, i64 noundef %1) #1 comdat {
  %3 = alloca i64, align 8
  %4 = alloca i64, align 8
  %5 = alloca i64, align 8
  store i64 %0, ptr %3, align 8
  store i64 %1, ptr %4, align 8
  %6 = load i64, ptr %3, align 8
  %7 = load i64, ptr %4, align 8
  %8 = call noundef i64 @_ZL14alignment_maskImTnNSt9enable_ifIXcvbsr3std11is_integralIT_EE5valueEiE4typeELi0EES1_S1_(i64 noundef %7)
  %9 = add i64 %6, %8
  %10 = call noundef i64 @_Z12checked_castImmET_T0_(i64 noundef %9)
  store i64 %10, ptr %5, align 8
  %11 = load i64, ptr %5, align 8
  %12 = load i64, ptr %4, align 8
  %13 = call noundef i64 @_Z10align_downImmTnNSt9enable_ifIXcvbsr3std11is_integralIT_EE5valueEiE4typeELi0EES1_S1_T0_(i64 noundef %11, i64 noundef %12)
  ret i64 %13
}

; Function Attrs: mustprogress nounwind uwtable
define linkonce_odr hidden void @_ZN15NativeCallStackC2ENS_10FakeMarkerE(ptr noundef nonnull align 8 dereferenceable(32) %0, i32 noundef %1) unnamed_addr #1 comdat align 2 {
  %3 = alloca ptr, align 8
  %4 = alloca i32, align 4
  store ptr %0, ptr %3, align 8
  store i32 %1, ptr %4, align 4
  ret void
}

; Function Attrs: mustprogress nounwind uwtable
define linkonce_odr hidden noundef i32 @_ZN10MemTracker14tracking_levelEv() #1 comdat align 2 {
  %1 = load i32, ptr @_ZN10MemTracker15_tracking_levelE, align 4
  ret i32 %1
}

; Function Attrs: mustprogress nounwind uwtable
define linkonce_odr hidden noundef i64 @_ZN10OopStorage11ActiveArray13blocks_offsetEv() #1 comdat align 2 {
  %1 = call noundef i64 @_Z8align_upImmTnNSt9enable_ifIXcvbsr3std11is_integralIT_EE5valueEiE4typeELi0EES1_S1_T0_(i64 noundef 24, i64 noundef 8)
  ret i64 %1
}

; Function Attrs: mustprogress nounwind uwtable
define hidden noundef ptr @_ZN10OopStorage11ActiveArray6createEm8MEMFLAGSN17AllocFailStrategy13AllocFailEnumE(i64 noundef %0, i8 noundef zeroext %1, i32 noundef %2) #1 align 2 {
  %4 = alloca ptr, align 8
  %5 = alloca i64, align 8
  %6 = alloca i8, align 1
  %7 = alloca i32, align 4
  %8 = alloca i64, align 8
  %9 = alloca ptr, align 8
  %10 = alloca %class.NativeCallStack, align 8
  store i64 %0, ptr %5, align 8
  store i8 %1, ptr %6, align 1
  store i32 %2, ptr %7, align 4
  %11 = call noundef i64 @_ZN10OopStorage11ActiveArray13blocks_offsetEv()
  %12 = load i64, ptr %5, align 8
  %13 = mul i64 8, %12
  %14 = add i64 %11, %13
  store i64 %14, ptr %8, align 8
  %15 = load i64, ptr %8, align 8
  %16 = mul i64 %15, 1
  %17 = load i8, ptr %6, align 1
  %18 = call noundef i32 @_ZN10MemTracker14tracking_levelEv()
  %19 = icmp eq i32 %18, 3
  br i1 %19, label %20, label %21

20:                                               ; preds = %3
  call void @_ZN15NativeCallStackC1Ei(ptr noundef nonnull align 8 dereferenceable(32) %10, i32 noundef 0)
  br label %22

21:                                               ; preds = %3
  call void @_ZN15NativeCallStackC2ENS_10FakeMarkerE(ptr noundef nonnull align 8 dereferenceable(32) %10, i32 noundef 0)
  br label %22

22:                                               ; preds = %21, %20
  %23 = load i32, ptr %7, align 4
  %24 = call noundef ptr @_Z12AllocateHeapm8MEMFLAGSRK15NativeCallStackN17AllocFailStrategy13AllocFailEnumE(i64 noundef %16, i8 noundef zeroext %17, ptr noundef nonnull align 8 dereferenceable(32) %10, i32 noundef %23)
  store ptr %24, ptr %9, align 8
  %25 = load ptr, ptr %9, align 8
  %26 = icmp eq ptr %25, null
  br i1 %26, label %27, label %28

27:                                               ; preds = %22
  store ptr null, ptr %4, align 8
  br label %31

28:                                               ; preds = %22
  %29 = load ptr, ptr %9, align 8
  %30 = load i64, ptr %5, align 8
  call void @_ZN10OopStorage11ActiveArrayC1Em(ptr noundef nonnull align 8 dereferenceable(20) %29, i64 noundef %30)
  store ptr %29, ptr %4, align 8
  br label %31

31:                                               ; preds = %28, %27
  %32 = load ptr, ptr %4, align 8
  ret ptr %32
}