; Function Attrs: mustprogress nounwind uwtable
define hidden noundef ptr @_ZN10OopStorage11ActiveArray6createEm8MEMFLAGSN17AllocFailStrategy13AllocFailEnumE(i64 noundef %0, i8 noundef zeroext %1, i32 noundef %2) local_unnamed_addr #5 align 2 {
  %4 = alloca %class.NativeCallStack, align 8
  %5 = shl i64 %0, 3
  %6 = add i64 %5, 24
  %7 = load i32, ptr @_ZN10MemTracker15_tracking_levelE, align 4
  %8 = icmp eq i32 %7, 3
  br i1 %8, label %9, label %10

9:                                                ; preds = %3
  call void @_ZN15NativeCallStackC1Ei(ptr noundef nonnull align 8 dereferenceable(32) %4, i32 noundef 0) #21
  br label %10

10:                                               ; preds = %3, %9
  %11 = call noundef ptr @_Z12AllocateHeapm8MEMFLAGSRK15NativeCallStackN17AllocFailStrategy13AllocFailEnumE(i64 noundef %6, i8 noundef zeroext %1, ptr noundef nonnull align 8 dereferenceable(32) %4, i32 noundef %2) #21
  %12 = icmp eq ptr %11, null
  br i1 %12, label %16, label %13

13:                                               ; preds = %10
  store i64 %0, ptr %11, align 8
  %14 = getelementptr inbounds i8, ptr %11, i64 8
  store volatile i64 0, ptr %14, align 8
  %15 = getelementptr inbounds i8, ptr %11, i64 16
  store volatile i32 0, ptr %15, align 8
  br label %16

16:                                               ; preds = %10, %13
  ret ptr %11
}